target datalayout = "e-m:e-p270:32:32-p271:32:32-p272:64:64-i64:64-i128:128-f80:128-n8:16:32:64-S128"
target triple = "x86_64-pc-linux-gnu"

%union.Value = type { ptr }
%struct.lua_State = type { ptr, i8, i8, i8, ptr, ptr, ptr, ptr, ptr, ptr, ptr, ptr, ptr, i32, i32, i16, i16, i8, i8, i32, i32, ptr, %struct.lua_TValue, %struct.lua_TValue, ptr, ptr, ptr, i64 }
%struct.lua_TValue = type { %union.Value, i32 }
%struct.global_State = type { %struct.stringtable, ptr, ptr, i8, i8, i32, ptr, ptr, ptr, ptr, ptr, ptr, %struct.Mbuffer, i64, i64, i64, i64, i32, i32, ptr, %struct.lua_TValue, ptr, %struct.UpVal, [9 x ptr], [17 x ptr] }
%struct.stringtable = type { ptr, i32, i32 }
%struct.Mbuffer = type { ptr, i64, i64 }
%struct.UpVal = type { ptr, i8, i8, ptr, %union.anon }
%union.anon = type { %struct.lua_TValue }
%struct.CallInfo = type { ptr, ptr, ptr, ptr, i32, i32 }
%struct.anon.0 = type { ptr, i8, i8, i8, i32, i64 }
%union.TString = type { %struct.anon.0 }
%struct.CClosure = type { ptr, i8, i8, i8, i8, ptr, ptr, ptr, [1 x %struct.lua_TValue] }
%union.anon.7 = type { double }

@luaO_nilobject_ = internal constant { %union.Value, i32, [4 x i8] } zeroinitializer, align 8
@.str.25 = private unnamed_addr constant [7 x i8] c"number\00", align 1

; Function Attrs: nounwind uwtable
define internal i32 @luaO_str2d(ptr noundef %0, ptr noundef %1) #0 {
  %3 = alloca i32, align 4
  %4 = alloca ptr, align 8
  %5 = alloca ptr, align 8
  %6 = alloca ptr, align 8
  %7 = alloca i32, align 4
  store ptr %0, ptr %4, align 8, !tbaa !13
  store ptr %1, ptr %5, align 8, !tbaa !233
  call void @llvm.lifetime.start.p0(i64 8, ptr %6) #14
  %8 = load ptr, ptr %4, align 8, !tbaa !13
  %9 = call double @strtod(ptr noundef %8, ptr noundef %6) #14
  %10 = load ptr, ptr %5, align 8, !tbaa !233
  store double %9, ptr %10, align 8, !tbaa !154
  %11 = load ptr, ptr %6, align 8, !tbaa !13
  %12 = load ptr, ptr %4, align 8, !tbaa !13
  %13 = icmp eq ptr %11, %12
  br i1 %13, label %14, label %15

14:                                               ; preds = %2
  store i32 0, ptr %3, align 4
  store i32 1, ptr %7, align 4
  br label %59

15:                                               ; preds = %2
  %16 = load ptr, ptr %6, align 8, !tbaa !13
  %17 = load i8, ptr %16, align 1, !tbaa !45
  %18 = sext i8 %17 to i32
  %19 = icmp eq i32 %18, 120
  br i1 %19, label %25, label %20

20:                                               ; preds = %15
  %21 = load ptr, ptr %6, align 8, !tbaa !13
  %22 = load i8, ptr %21, align 1, !tbaa !45
  %23 = sext i8 %22 to i32
  %24 = icmp eq i32 %23, 88
  br i1 %24, label %25, label %30

25:                                               ; preds = %20, %15
  %26 = load ptr, ptr %4, align 8, !tbaa !13
  %27 = call i64 @strtoul(ptr noundef %26, ptr noundef %6, i32 noundef 16) #14
  %28 = uitofp i64 %27 to double
  %29 = load ptr, ptr %5, align 8, !tbaa !233
  store double %28, ptr %29, align 8, !tbaa !154
  br label %30

30:                                               ; preds = %25, %20
  %31 = load ptr, ptr %6, align 8, !tbaa !13
  %32 = load i8, ptr %31, align 1, !tbaa !45
  %33 = sext i8 %32 to i32
  %34 = icmp eq i32 %33, 0
  br i1 %34, label %35, label %36

35:                                               ; preds = %30
  store i32 1, ptr %3, align 4
  store i32 1, ptr %7, align 4
  br label %59

36:                                               ; preds = %30
  br label %37

37:                                               ; preds = %49, %36
  %38 = call ptr @__ctype_b_loc() #19
  %39 = load ptr, ptr %38, align 8, !tbaa !235
  %40 = load ptr, ptr %6, align 8, !tbaa !13
  %41 = load i8, ptr %40, align 1, !tbaa !45
  %42 = zext i8 %41 to i32
  %43 = sext i32 %42 to i64
  %44 = getelementptr inbounds i16, ptr %39, i64 %43
  %45 = load i16, ptr %44, align 2, !tbaa !237
  %46 = zext i16 %45 to i32
  %47 = and i32 %46, 8192
  %48 = icmp ne i32 %47, 0
  br i1 %48, label %49, label %52

49:                                               ; preds = %37
  %50 = load ptr, ptr %6, align 8, !tbaa !13
  %51 = getelementptr inbounds nuw i8, ptr %50, i32 1
  store ptr %51, ptr %6, align 8, !tbaa !13
  br label %37, !llvm.loop !238

52:                                               ; preds = %37
  %53 = load ptr, ptr %6, align 8, !tbaa !13
  %54 = load i8, ptr %53, align 1, !tbaa !45
  %55 = sext i8 %54 to i32
  %56 = icmp ne i32 %55, 0
  br i1 %56, label %57, label %58

57:                                               ; preds = %52
  store i32 0, ptr %3, align 4
  store i32 1, ptr %7, align 4
  br label %59

58:                                               ; preds = %52
  store i32 1, ptr %3, align 4
  store i32 1, ptr %7, align 4
  br label %59

59:                                               ; preds = %58, %57, %35, %14
  call void @llvm.lifetime.end.p0(i64 8, ptr %6) #14
  %60 = load i32, ptr %3, align 4
  ret i32 %60
}

; Function Attrs: nounwind uwtable
define internal ptr @luaV_tonumber(ptr noundef %0, ptr noundef %1) #0 {
  %3 = alloca ptr, align 8
  %4 = alloca ptr, align 8
  %5 = alloca ptr, align 8
  %6 = alloca double, align 8
  %7 = alloca i32, align 4
  %8 = alloca ptr, align 8
  store ptr %0, ptr %4, align 8, !tbaa !44
  store ptr %1, ptr %5, align 8, !tbaa !44
  call void @llvm.lifetime.start.p0(i64 8, ptr %6) #14
  %9 = load ptr, ptr %4, align 8, !tbaa !44
  %10 = getelementptr inbounds nuw %struct.lua_TValue, ptr %9, i32 0, i32 1
  %11 = load i32, ptr %10, align 8, !tbaa !46
  %12 = icmp eq i32 %11, 3
  br i1 %12, label %13, label %15

13:                                               ; preds = %2
  %14 = load ptr, ptr %4, align 8, !tbaa !44
  store ptr %14, ptr %3, align 8
  store i32 1, ptr %7, align 4
  br label %36

15:                                               ; preds = %2
  %16 = load ptr, ptr %4, align 8, !tbaa !44
  %17 = getelementptr inbounds nuw %struct.lua_TValue, ptr %16, i32 0, i32 1
  %18 = load i32, ptr %17, align 8, !tbaa !46
  %19 = icmp eq i32 %18, 4
  br i1 %19, label %20, label %35

20:                                               ; preds = %15
  %21 = load ptr, ptr %4, align 8, !tbaa !44
  %22 = getelementptr inbounds nuw %struct.lua_TValue, ptr %21, i32 0, i32 0
  %23 = load ptr, ptr %22, align 8, !tbaa !45
  %24 = getelementptr inbounds %union.TString, ptr %23, i64 1
  %25 = call i32 @luaO_str2d(ptr noundef %24, ptr noundef %6)
  %26 = icmp ne i32 %25, 0
  br i1 %26, label %27, label %35

27:                                               ; preds = %20
  call void @llvm.lifetime.start.p0(i64 8, ptr %8) #14
  %28 = load ptr, ptr %5, align 8, !tbaa !44
  store ptr %28, ptr %8, align 8, !tbaa !44
  %29 = load double, ptr %6, align 8, !tbaa !154
  %30 = load ptr, ptr %8, align 8, !tbaa !44
  %31 = getelementptr inbounds nuw %struct.lua_TValue, ptr %30, i32 0, i32 0
  store double %29, ptr %31, align 8, !tbaa !45
  %32 = load ptr, ptr %8, align 8, !tbaa !44
  %33 = getelementptr inbounds nuw %struct.lua_TValue, ptr %32, i32 0, i32 1
  store i32 3, ptr %33, align 8, !tbaa !46
  call void @llvm.lifetime.end.p0(i64 8, ptr %8) #14
  %34 = load ptr, ptr %5, align 8, !tbaa !44
  store ptr %34, ptr %3, align 8
  store i32 1, ptr %7, align 4
  br label %36

35:                                               ; preds = %20, %15
  store ptr null, ptr %3, align 8
  store i32 1, ptr %7, align 4
  br label %36

36:                                               ; preds = %35, %27, %13
  call void @llvm.lifetime.end.p0(i64 8, ptr %6) #14
  %37 = load ptr, ptr %3, align 8
  ret ptr %37
}

; Function Attrs: nounwind uwtable
define internal ptr @index2adr(ptr noundef %0, i32 noundef %1) #0 {
  %3 = alloca ptr, align 8
  %4 = alloca ptr, align 8
  %5 = alloca i32, align 4
  %6 = alloca ptr, align 8
  %7 = alloca i32, align 4
  %8 = alloca ptr, align 8
  %9 = alloca ptr, align 8
  %10 = alloca ptr, align 8
  store ptr %0, ptr %4, align 8, !tbaa !11
  store i32 %1, ptr %5, align 4, !tbaa !4
  %11 = load i32, ptr %5, align 4, !tbaa !4
  %12 = icmp sgt i32 %11, 0
  br i1 %12, label %13, label %30

13:                                               ; preds = %2
  call void @llvm.lifetime.start.p0(i64 8, ptr %6) #14
  %14 = load ptr, ptr %4, align 8, !tbaa !11
  %15 = getelementptr inbounds nuw %struct.lua_State, ptr %14, i32 0, i32 5
  %16 = load ptr, ptr %15, align 8, !tbaa !67
  %17 = load i32, ptr %5, align 4, !tbaa !4
  %18 = sub nsw i32 %17, 1
  %19 = sext i32 %18 to i64
  %20 = getelementptr inbounds %struct.lua_TValue, ptr %16, i64 %19
  store ptr %20, ptr %6, align 8, !tbaa !44
  %21 = load ptr, ptr %6, align 8, !tbaa !44
  %22 = load ptr, ptr %4, align 8, !tbaa !11
  %23 = getelementptr inbounds nuw %struct.lua_State, ptr %22, i32 0, i32 4
  %24 = load ptr, ptr %23, align 8, !tbaa !43
  %25 = icmp uge ptr %21, %24
  br i1 %25, label %26, label %27

26:                                               ; preds = %13
  store ptr @luaO_nilobject_, ptr %3, align 8
  store i32 1, ptr %7, align 4
  br label %29

27:                                               ; preds = %13
  %28 = load ptr, ptr %6, align 8, !tbaa !44
  store ptr %28, ptr %3, align 8
  store i32 1, ptr %7, align 4
  br label %29

29:                                               ; preds = %27, %26
  call void @llvm.lifetime.end.p0(i64 8, ptr %6) #14
  br label %95

30:                                               ; preds = %2
  %31 = load i32, ptr %5, align 4, !tbaa !4
  %32 = icmp sgt i32 %31, -10000
  br i1 %32, label %33, label %40

33:                                               ; preds = %30
  %34 = load ptr, ptr %4, align 8, !tbaa !11
  %35 = getelementptr inbounds nuw %struct.lua_State, ptr %34, i32 0, i32 4
  %36 = load ptr, ptr %35, align 8, !tbaa !43
  %37 = load i32, ptr %5, align 4, !tbaa !4
  %38 = sext i32 %37 to i64
  %39 = getelementptr inbounds %struct.lua_TValue, ptr %36, i64 %38
  store ptr %39, ptr %3, align 8
  br label %95

40:                                               ; preds = %30
  %41 = load i32, ptr %5, align 4, !tbaa !4
  switch i32 %41, label %69 [
    i32 -10000, label %42
    i32 -10001, label %47
    i32 -10002, label %66
  ]

42:                                               ; preds = %40
  %43 = load ptr, ptr %4, align 8, !tbaa !11
  %44 = getelementptr inbounds nuw %struct.lua_State, ptr %43, i32 0, i32 6
  %45 = load ptr, ptr %44, align 8, !tbaa !25
  %46 = getelementptr inbounds nuw %struct.global_State, ptr %45, i32 0, i32 20
  store ptr %46, ptr %3, align 8
  br label %95

47:                                               ; preds = %40
  call void @llvm.lifetime.start.p0(i64 8, ptr %8) #14
  %48 = load ptr, ptr %4, align 8, !tbaa !11
  %49 = getelementptr inbounds nuw %struct.lua_State, ptr %48, i32 0, i32 7
  %50 = load ptr, ptr %49, align 8, !tbaa !58
  %51 = getelementptr inbounds nuw %struct.CallInfo, ptr %50, i32 0, i32 1
  %52 = load ptr, ptr %51, align 8, !tbaa !117
  %53 = getelementptr inbounds nuw %struct.lua_TValue, ptr %52, i32 0, i32 0
  %54 = load ptr, ptr %53, align 8, !tbaa !45
  store ptr %54, ptr %8, align 8, !tbaa !191
  call void @llvm.lifetime.start.p0(i64 8, ptr %9) #14
  %55 = load ptr, ptr %4, align 8, !tbaa !11
  %56 = getelementptr inbounds nuw %struct.lua_State, ptr %55, i32 0, i32 23
  store ptr %56, ptr %9, align 8, !tbaa !44
  %57 = load ptr, ptr %8, align 8, !tbaa !191
  %58 = getelementptr inbounds nuw %struct.CClosure, ptr %57, i32 0, i32 6
  %59 = load ptr, ptr %58, align 8, !tbaa !45
  %60 = load ptr, ptr %9, align 8, !tbaa !44
  %61 = getelementptr inbounds nuw %struct.lua_TValue, ptr %60, i32 0, i32 0
  store ptr %59, ptr %61, align 8, !tbaa !45
  %62 = load ptr, ptr %9, align 8, !tbaa !44
  %63 = getelementptr inbounds nuw %struct.lua_TValue, ptr %62, i32 0, i32 1
  store i32 5, ptr %63, align 8, !tbaa !46
  call void @llvm.lifetime.end.p0(i64 8, ptr %9) #14
  %64 = load ptr, ptr %4, align 8, !tbaa !11
  %65 = getelementptr inbounds nuw %struct.lua_State, ptr %64, i32 0, i32 23
  store ptr %65, ptr %3, align 8
  store i32 1, ptr %7, align 4
  call void @llvm.lifetime.end.p0(i64 8, ptr %8) #14
  br label %95

66:                                               ; preds = %40
  %67 = load ptr, ptr %4, align 8, !tbaa !11
  %68 = getelementptr inbounds nuw %struct.lua_State, ptr %67, i32 0, i32 22
  store ptr %68, ptr %3, align 8
  br label %95

69:                                               ; preds = %40
  call void @llvm.lifetime.start.p0(i64 8, ptr %10) #14
  %70 = load ptr, ptr %4, align 8, !tbaa !11
  %71 = getelementptr inbounds nuw %struct.lua_State, ptr %70, i32 0, i32 7
  %72 = load ptr, ptr %71, align 8, !tbaa !58
  %73 = getelementptr inbounds nuw %struct.CallInfo, ptr %72, i32 0, i32 1
  %74 = load ptr, ptr %73, align 8, !tbaa !117
  %75 = getelementptr inbounds nuw %struct.lua_TValue, ptr %74, i32 0, i32 0
  %76 = load ptr, ptr %75, align 8, !tbaa !45
  store ptr %76, ptr %10, align 8, !tbaa !191
  %77 = load i32, ptr %5, align 4, !tbaa !4
  %78 = sub nsw i32 -10002, %77
  store i32 %78, ptr %5, align 4, !tbaa !4
  %79 = load i32, ptr %5, align 4, !tbaa !4
  %80 = load ptr, ptr %10, align 8, !tbaa !191
  %81 = getelementptr inbounds nuw %struct.CClosure, ptr %80, i32 0, i32 4
  %82 = load i8, ptr %81, align 1, !tbaa !45
  %83 = zext i8 %82 to i32
  %84 = icmp sle i32 %79, %83
  br i1 %84, label %85, label %92

85:                                               ; preds = %69
  %86 = load ptr, ptr %10, align 8, !tbaa !191
  %87 = getelementptr inbounds nuw %struct.CClosure, ptr %86, i32 0, i32 8
  %88 = load i32, ptr %5, align 4, !tbaa !4
  %89 = sub nsw i32 %88, 1
  %90 = sext i32 %89 to i64
  %91 = getelementptr inbounds [1 x %struct.lua_TValue], ptr %87, i64 0, i64 %90
  br label %93

92:                                               ; preds = %69
  br label %93

93:                                               ; preds = %92, %85
  %94 = phi ptr [ %91, %85 ], [ @luaO_nilobject_, %92 ]
  store ptr %94, ptr %3, align 8
  store i32 1, ptr %7, align 4
  call void @llvm.lifetime.end.p0(i64 8, ptr %10) #14
  br label %95

95:                                               ; preds = %93, %66, %47, %42, %33, %29
  %96 = load ptr, ptr %3, align 8
  ret ptr %96
}

; Function Attrs: nounwind uwtable
define internal i32 @lua_isnumber(ptr noundef %0, i32 noundef %1) #0 {
  %3 = alloca ptr, align 8
  %4 = alloca i32, align 4
  %5 = alloca %struct.lua_TValue, align 8
  %6 = alloca ptr, align 8
  store ptr %0, ptr %3, align 8, !tbaa !11
  store i32 %1, ptr %4, align 4, !tbaa !4
  call void @llvm.lifetime.start.p0(i64 16, ptr %5) #14
  call void @llvm.lifetime.start.p0(i64 8, ptr %6) #14
  %7 = load ptr, ptr %3, align 8, !tbaa !11
  %8 = load i32, ptr %4, align 4, !tbaa !4
  %9 = call ptr @index2adr(ptr noundef %7, i32 noundef %8)
  store ptr %9, ptr %6, align 8, !tbaa !44
  %10 = load ptr, ptr %6, align 8, !tbaa !44
  %11 = getelementptr inbounds nuw %struct.lua_TValue, ptr %10, i32 0, i32 1
  %12 = load i32, ptr %11, align 8, !tbaa !46
  %13 = icmp eq i32 %12, 3
  br i1 %13, label %18, label %14

14:                                               ; preds = %2
  %15 = load ptr, ptr %6, align 8, !tbaa !44
  %16 = call ptr @luaV_tonumber(ptr noundef %15, ptr noundef %5)
  store ptr %16, ptr %6, align 8, !tbaa !44
  %17 = icmp ne ptr %16, null
  br label %18

18:                                               ; preds = %14, %2
  %19 = phi i1 [ true, %2 ], [ %17, %14 ]
  %20 = zext i1 %19 to i32
  call void @llvm.lifetime.end.p0(i64 8, ptr %6) #14
  call void @llvm.lifetime.end.p0(i64 16, ptr %5) #14
  ret i32 %20
}

; Function Attrs: nounwind uwtable
define internal void @lua_pushnumber(ptr noundef %0, double noundef %1) #0 {
  %3 = alloca ptr, align 8
  %4 = alloca double, align 8
  %5 = alloca ptr, align 8
  store ptr %0, ptr %3, align 8, !tbaa !11
  store double %1, ptr %4, align 8, !tbaa !154
  call void @llvm.lifetime.start.p0(i64 8, ptr %5) #14
  %6 = load ptr, ptr %3, align 8, !tbaa !11
  %7 = getelementptr inbounds nuw %struct.lua_State, ptr %6, i32 0, i32 4
  %8 = load ptr, ptr %7, align 8, !tbaa !43
  store ptr %8, ptr %5, align 8, !tbaa !44
  %9 = load double, ptr %4, align 8, !tbaa !154
  %10 = load ptr, ptr %5, align 8, !tbaa !44
  %11 = getelementptr inbounds nuw %struct.lua_TValue, ptr %10, i32 0, i32 0
  store double %9, ptr %11, align 8, !tbaa !45
  %12 = load ptr, ptr %5, align 8, !tbaa !44
  %13 = getelementptr inbounds nuw %struct.lua_TValue, ptr %12, i32 0, i32 1
  store i32 3, ptr %13, align 8, !tbaa !46
  call void @llvm.lifetime.end.p0(i64 8, ptr %5) #14
  %14 = load ptr, ptr %3, align 8, !tbaa !11
  %15 = getelementptr inbounds nuw %struct.lua_State, ptr %14, i32 0, i32 4
  %16 = load ptr, ptr %15, align 8, !tbaa !43
  %17 = getelementptr inbounds nuw %struct.lua_TValue, ptr %16, i32 1
  store ptr %17, ptr %15, align 8, !tbaa !43
  ret void
}

; Function Attrs: nounwind uwtable
define internal i32 @barg(ptr noundef %0, i32 noundef %1) #0 {
  %3 = alloca ptr, align 8
  %4 = alloca i32, align 4
  %5 = alloca %union.anon.7, align 8
  store ptr %0, ptr %3, align 8, !tbaa !11
  store i32 %1, ptr %4, align 4, !tbaa !4
  call void @llvm.lifetime.start.p0(i64 8, ptr %5) #14
  %6 = load ptr, ptr %3, align 8, !tbaa !11
  %7 = load i32, ptr %4, align 4, !tbaa !4
  %8 = call double @lua_tonumber(ptr noundef %6, i32 noundef %7)
  %9 = fadd double %8, 0x4338000000000000
  store double %9, ptr %5, align 8, !tbaa !45
  %10 = load double, ptr %5, align 8, !tbaa !45
  %11 = fcmp oeq double %10, 0.000000e+00
  br i1 %11, label %12, label %21

12:                                               ; preds = %2
  %13 = load ptr, ptr %3, align 8, !tbaa !11
  %14 = load i32, ptr %4, align 4, !tbaa !4
  %15 = call i32 @lua_isnumber(ptr noundef %13, i32 noundef %14)
  %16 = icmp ne i32 %15, 0
  br i1 %16, label %21, label %17

17:                                               ; preds = %12
  %18 = load ptr, ptr %3, align 8, !tbaa !11
  %19 = load i32, ptr %4, align 4, !tbaa !4
  %20 = call i32 @luaL_typerror(ptr noundef %18, i32 noundef %19, ptr noundef @.str.25)
  br label %21

21:                                               ; preds = %17, %12, %2
  %22 = load i64, ptr %5, align 8, !tbaa !45
  %23 = trunc i64 %22 to i32
  call void @llvm.lifetime.end.p0(i64 8, ptr %5) #14
  ret i32 %23
}

; Function Attrs: nounwind uwtable
define internal i32 @bswap(ptr noundef %0) #0 {
  %2 = alloca ptr, align 8
  %3 = alloca i32, align 4
  store ptr %0, ptr %2, align 8, !tbaa !11
  call void @llvm.lifetime.start.p0(i64 4, ptr %3) #14
  %4 = load ptr, ptr %2, align 8, !tbaa !11
  %5 = call i32 @barg(ptr noundef %4, i32 noundef 1)
  store i32 %5, ptr %3, align 4, !tbaa !4
  %6 = load i32, ptr %3, align 4, !tbaa !4
  %7 = lshr i32 %6, 24
  %8 = load i32, ptr %3, align 4, !tbaa !4
  %9 = lshr i32 %8, 8
  %10 = and i32 %9, 65280
  %11 = or i32 %7, %10
  %12 = load i32, ptr %3, align 4, !tbaa !4
  %13 = and i32 %12, 65280
  %14 = shl i32 %13, 8
  %15 = or i32 %11, %14
  %16 = load i32, ptr %3, align 4, !tbaa !4
  %17 = shl i32 %16, 24
  %18 = or i32 %15, %17
  store i32 %18, ptr %3, align 4, !tbaa !4
  %19 = load ptr, ptr %2, align 8, !tbaa !11
  %20 = load i32, ptr %3, align 4, !tbaa !4
  %21 = sitofp i32 %20 to double
  call void @lua_pushnumber(ptr noundef %19, double noundef %21)
  call void @llvm.lifetime.end.p0(i64 4, ptr %3) #14
  ret i32 1
}