; Function Attrs: nounwind uwtable
define internal noundef i32 @bswap(ptr noundef %0) #0 {
  %2 = alloca ptr, align 8
  %3 = tail call fastcc double @lua_tonumber(ptr noundef %0, i32 noundef 1)
  %4 = fadd double %3, 0x4338000000000000
  %5 = fcmp oeq double %4, 0.000000e+00
  br i1 %5, label %6, label %barg.exit

6:                                                ; preds = %1
  %7 = getelementptr inbounds nuw i8, ptr %0, i64 24
  %8 = load ptr, ptr %7, align 8, !tbaa !86
  %9 = getelementptr inbounds nuw i8, ptr %0, i64 16
  %10 = load ptr, ptr %9, align 8, !tbaa !62
  %.not28.i.i = icmp ult ptr %8, %10
  %.luaO_nilobject_.i.i = select i1 %.not28.i.i, ptr %8, ptr @luaO_nilobject_
  %11 = getelementptr inbounds nuw i8, ptr %.luaO_nilobject_.i.i, i64 8
  %12 = load i32, ptr %11, align 8, !tbaa !69
  switch i32 %12, label %luaV_tonumber.exit.i [
    i32 3, label %barg.exit
    i32 4, label %13
  ]

13:                                               ; preds = %6
  %14 = load ptr, ptr %.luaO_nilobject_.i.i, align 8, !tbaa !46
  %15 = getelementptr inbounds nuw i8, ptr %14, i64 24
  call void @llvm.lifetime.start.p0(i64 8, ptr nonnull %2) #35
  %16 = call double @strtod(ptr noundef nonnull %15, ptr noundef nonnull %2) #35
  %17 = load ptr, ptr %2, align 8, !tbaa !70
  %18 = icmp eq ptr %17, %15
  br i1 %18, label %luaO_str2d.exit.thread.i.i, label %19

luaO_str2d.exit.thread.i.i:                       ; preds = %13
  call void @llvm.lifetime.end.p0(i64 8, ptr nonnull %2) #35
  br label %luaV_tonumber.exit.i

19:                                               ; preds = %13
  %20 = load i8, ptr %17, align 1, !tbaa !46
  switch i8 %20, label %23 [
    i8 120, label %21
    i8 88, label %21
  ]

21:                                               ; preds = %19, %19
  %22 = call i64 @strtoul(ptr noundef nonnull %15, ptr noundef nonnull %2, i32 noundef 16) #35
  %.pre.i.i.i = load ptr, ptr %2, align 8, !tbaa !70
  %.pre11.i.i.i = load i8, ptr %.pre.i.i.i, align 1, !tbaa !46
  br label %23

23:                                               ; preds = %21, %19
  %24 = phi i8 [ %20, %19 ], [ %.pre11.i.i.i, %21 ]
  %.promoted.i.i.i = phi ptr [ %17, %19 ], [ %.pre.i.i.i, %21 ]
  %25 = icmp eq i8 %24, 0
  br i1 %25, label %luaO_str2d.exit.thread14.i.i, label %.preheader.i.i.i

luaO_str2d.exit.thread14.i.i:                     ; preds = %23
  call void @llvm.lifetime.end.p0(i64 8, ptr nonnull %2) #35
  br label %barg.exit

.preheader.i.i.i:                                 ; preds = %23
  %26 = tail call ptr @__ctype_b_loc() #42
  %27 = load ptr, ptr %26, align 8, !tbaa !176
  br label %28

28:                                               ; preds = %28, %.preheader.i.i.i
  %29 = phi ptr [ %.promoted.i.i.i, %.preheader.i.i.i ], [ %35, %28 ]
  %30 = load i8, ptr %29, align 1, !tbaa !46
  %31 = zext i8 %30 to i64
  %32 = getelementptr inbounds nuw i16, ptr %27, i64 %31
  %33 = load i16, ptr %32, align 2, !tbaa !178
  %34 = and i16 %33, 8192
  %.not.i.i.i = icmp eq i16 %34, 0
  %35 = getelementptr inbounds nuw i8, ptr %29, i64 1
  br i1 %.not.i.i.i, label %luaO_str2d.exit.i.i, label %28, !llvm.loop !179

luaO_str2d.exit.i.i:                              ; preds = %28
  %.not8.i.not.i.i = icmp eq i8 %30, 0
  call void @llvm.lifetime.end.p0(i64 8, ptr nonnull %2) #35
  br i1 %.not8.i.not.i.i, label %barg.exit, label %luaV_tonumber.exit.i

luaV_tonumber.exit.i:                             ; preds = %6, %luaO_str2d.exit.i.i, %luaO_str2d.exit.thread.i.i
  tail call fastcc void @luaL_typerror(ptr noundef %0, i32 noundef 1, ptr noundef nonnull @.str.25)
  unreachable

barg.exit:                                        ; preds = %luaO_str2d.exit.thread14.i.i, %luaO_str2d.exit.i.i, %6, %1
  %36 = bitcast double %4 to i64
  %37 = trunc i64 %36 to i32
  %38 = tail call i32 @llvm.bswap.i32(i32 %37)
  %39 = sitofp i32 %38 to double
  %40 = getelementptr inbounds nuw i8, ptr %0, i64 16
  %41 = load ptr, ptr %40, align 8, !tbaa !62
  store double %39, ptr %41, align 8, !tbaa !46
  %42 = getelementptr inbounds nuw i8, ptr %41, i64 8
  store i32 3, ptr %42, align 8, !tbaa !69
  %43 = load ptr, ptr %40, align 8, !tbaa !62
  %44 = getelementptr inbounds nuw i8, ptr %43, i64 16
  store ptr %44, ptr %40, align 8, !tbaa !62
  ret i32 1
}